target datalayout = "e-m:e-p270:32:32-p271:32:32-p272:64:64-i64:64-i128:128-f80:128-n8:16:32:64-S128"
target triple = "x86_64-pc-linux-gnu"

%"struct.std::nothrow_t" = type { i8 }
%class.ElfDecoder = type { %class.AbstractDecoder.base, ptr }
%class.AbstractDecoder.base = type <{ ptr, i32 }>
%class.ElfFile = type { ptr, ptr, ptr, ptr, ptr, ptr, ptr, ptr, i32, ptr, %struct.Elf64_Ehdr }
%struct.Elf64_Ehdr = type { [16 x i8], i16, i16, i32, i64, i64, i64, i32, i16, i16, i16, i16, i16, i16 }

@_ZSt7nothrow = external global %"struct.std::nothrow_t", align 1

; Function Attrs: mustprogress nounwind uwtable
define linkonce_odr hidden void @_ZN7ElfFile8set_nextEPS_(ptr noundef nonnull align 8 dereferenceable(144) %0, ptr noundef %1) #1 comdat align 2 {
  %3 = alloca ptr, align 8
  %4 = alloca ptr, align 8
  store ptr %0, ptr %3, align 8
  store ptr %1, ptr %4, align 8
  %5 = load ptr, ptr %3, align 8
  %6 = load ptr, ptr %4, align 8
  %7 = getelementptr inbounds %class.ElfFile, ptr %5, i32 0, i32 1
  store ptr %6, ptr %7, align 8
  ret void
}

; Function Attrs: mustprogress nounwind uwtable
define linkonce_odr hidden noundef ptr @_ZNK7ElfFile4nextEv(ptr noundef nonnull align 8 dereferenceable(144) %0) #1 comdat align 2 {
  %2 = alloca ptr, align 8
  store ptr %0, ptr %2, align 8
  %3 = load ptr, ptr %2, align 8
  %4 = getelementptr inbounds %class.ElfFile, ptr %3, i32 0, i32 1
  %5 = load ptr, ptr %4, align 8
  ret ptr %5
}

; Function Attrs: mustprogress nounwind uwtable
define linkonce_odr hidden noundef zeroext i1 @_ZNK7ElfFile13same_elf_fileEPKc(ptr noundef nonnull align 8 dereferenceable(144) %0, ptr noundef %1) #1 comdat align 2 {
  %3 = alloca ptr, align 8
  %4 = alloca ptr, align 8
  store ptr %0, ptr %3, align 8
  store ptr %1, ptr %4, align 8
  %5 = load ptr, ptr %3, align 8
  %6 = getelementptr inbounds %class.ElfFile, ptr %5, i32 0, i32 2
  %7 = load ptr, ptr %6, align 8
  %8 = icmp ne ptr %7, null
  br i1 %8, label %9, label %16

9:                                                ; preds = %2
  %10 = load ptr, ptr %4, align 8
  %11 = getelementptr inbounds %class.ElfFile, ptr %5, i32 0, i32 2
  %12 = load ptr, ptr %11, align 8
  %13 = call i32 @strcmp(ptr noundef %10, ptr noundef %12) #6
  %14 = icmp ne i32 %13, 0
  %15 = xor i1 %14, true
  br label %16

16:                                               ; preds = %9, %2
  %17 = phi i1 [ false, %2 ], [ %15, %9 ]
  ret i1 %17
}

; Function Attrs: mustprogress nounwind uwtable
define hidden noundef ptr @_ZN10ElfDecoder12get_elf_fileEPKc(ptr noundef nonnull align 8 dereferenceable(24) %0, ptr noundef %1) #1 align 2 {
  %3 = alloca i64, align 8
  %4 = alloca i8, align 1
  %5 = alloca ptr, align 8
  %6 = alloca i64, align 8
  %7 = alloca ptr, align 8
  %8 = alloca ptr, align 8
  %9 = alloca ptr, align 8
  %10 = alloca ptr, align 8
  %11 = alloca ptr, align 8
  store ptr %0, ptr %9, align 8
  store ptr %1, ptr %10, align 8
  %12 = load ptr, ptr %9, align 8
  %13 = getelementptr inbounds %class.ElfDecoder, ptr %12, i32 0, i32 1
  %14 = load ptr, ptr %13, align 8
  store ptr %14, ptr %11, align 8
  br label %15

15:                                               ; preds = %24, %2
  %16 = load ptr, ptr %11, align 8
  %17 = icmp ne ptr %16, null
  br i1 %17, label %18, label %27

18:                                               ; preds = %15
  %19 = load ptr, ptr %11, align 8
  %20 = load ptr, ptr %10, align 8
  %21 = call noundef zeroext i1 @_ZNK7ElfFile13same_elf_fileEPKc(ptr noundef nonnull align 8 dereferenceable(144) %19, ptr noundef %20)
  br i1 %21, label %22, label %24

22:                                               ; preds = %18
  %23 = load ptr, ptr %11, align 8
  store ptr %23, ptr %8, align 8
  br label %53

24:                                               ; preds = %18
  %25 = load ptr, ptr %11, align 8
  %26 = call noundef ptr @_ZNK7ElfFile4nextEv(ptr noundef nonnull align 8 dereferenceable(144) %25)
  store ptr %26, ptr %11, align 8
  br label %15, !llvm.loop !6

27:                                               ; preds = %15
  store i64 144, ptr %6, align 8
  store ptr @_ZSt7nothrow, ptr %7, align 8
  %28 = load i64, ptr %6, align 8
  %29 = load ptr, ptr %7, align 8
  store i64 %28, ptr %3, align 8
  store i8 9, ptr %4, align 1
  store ptr %29, ptr %5, align 8
  %30 = load i64, ptr %3, align 8
  %31 = load i8, ptr %4, align 1
  %32 = call noundef ptr @_Z12AllocateHeapm8MEMFLAGSN17AllocFailStrategy13AllocFailEnumE(i64 noundef %30, i8 noundef zeroext %31, i32 noundef 1) #5
  %33 = icmp eq ptr %32, null
  br i1 %33, label %36, label %34

34:                                               ; preds = %27
  %35 = load ptr, ptr %10, align 8
  call void @_ZN7ElfFileC1EPKc(ptr noundef nonnull align 8 dereferenceable(144) %32, ptr noundef %35)
  br label %36

36:                                               ; preds = %34, %27
  %37 = phi ptr [ %32, %34 ], [ null, %27 ]
  store ptr %37, ptr %11, align 8
  %38 = load ptr, ptr %11, align 8
  %39 = icmp ne ptr %38, null
  br i1 %39, label %40, label %51

40:                                               ; preds = %36
  %41 = getelementptr inbounds %class.ElfDecoder, ptr %12, i32 0, i32 1
  %42 = load ptr, ptr %41, align 8
  %43 = icmp ne ptr %42, null
  br i1 %43, label %44, label %48

44:                                               ; preds = %40
  %45 = load ptr, ptr %11, align 8
  %46 = getelementptr inbounds %class.ElfDecoder, ptr %12, i32 0, i32 1
  %47 = load ptr, ptr %46, align 8
  call void @_ZN7ElfFile8set_nextEPS_(ptr noundef nonnull align 8 dereferenceable(144) %45, ptr noundef %47)
  br label %48

48:                                               ; preds = %44, %40
  %49 = load ptr, ptr %11, align 8
  %50 = getelementptr inbounds %class.ElfDecoder, ptr %12, i32 0, i32 1
  store ptr %49, ptr %50, align 8
  br label %51

51:                                               ; preds = %48, %36
  %52 = load ptr, ptr %11, align 8
  store ptr %52, ptr %8, align 8
  br label %53

53:                                               ; preds = %51, %22
  %54 = load ptr, ptr %8, align 8
  ret ptr %54
}

; Function Attrs: mustprogress nounwind uwtable
define hidden noundef zeroext i1 @_ZN10ElfDecoder6decodeEPhPciPiPKcb(ptr noundef nonnull align 8 dereferenceable(24) %0, ptr noundef %1, ptr noundef %2, i32 noundef %3, ptr noundef %4, ptr noundef %5, i1 noundef zeroext %6) unnamed_addr #1 align 2 {
  %8 = alloca i1, align 1
  %9 = alloca ptr, align 8
  %10 = alloca ptr, align 8
  %11 = alloca ptr, align 8
  %12 = alloca i32, align 4
  %13 = alloca ptr, align 8
  %14 = alloca ptr, align 8
  %15 = alloca i8, align 1
  %16 = alloca ptr, align 8
  store ptr %0, ptr %9, align 8
  store ptr %1, ptr %10, align 8
  store ptr %2, ptr %11, align 8
  store i32 %3, ptr %12, align 4
  store ptr %4, ptr %13, align 8
  store ptr %5, ptr %14, align 8
  %17 = zext i1 %6 to i8
  store i8 %17, ptr %15, align 1
  %18 = load ptr, ptr %9, align 8
  %19 = load ptr, ptr %18, align 8
  %20 = getelementptr inbounds ptr, ptr %19, i64 7
  %21 = load ptr, ptr %20, align 8
  %22 = call noundef zeroext i1 %21(ptr noundef nonnull align 8 dereferenceable(12) %18)
  br i1 %22, label %23, label %24

23:                                               ; preds = %7
  store i1 false, ptr %8, align 1
  br label %56

24:                                               ; preds = %7
  %25 = load ptr, ptr %14, align 8
  %26 = call noundef ptr @_ZN10ElfDecoder12get_elf_fileEPKc(ptr noundef nonnull align 8 dereferenceable(24) %18, ptr noundef %25)
  store ptr %26, ptr %16, align 8
  %27 = load ptr, ptr %16, align 8
  %28 = icmp eq ptr %27, null
  br i1 %28, label %29, label %30

29:                                               ; preds = %24
  store i1 false, ptr %8, align 1
  br label %56

30:                                               ; preds = %24
  %31 = load ptr, ptr %16, align 8
  %32 = load ptr, ptr %10, align 8
  %33 = load ptr, ptr %11, align 8
  %34 = load i32, ptr %12, align 4
  %35 = load ptr, ptr %13, align 8
  %36 = call noundef zeroext i1 @_ZN7ElfFile6decodeEPhPciPi(ptr noundef nonnull align 8 dereferenceable(144) %31, ptr noundef %32, ptr noundef %33, i32 noundef %34, ptr noundef %35)
  br i1 %36, label %38, label %37

37:                                               ; preds = %30
  store i1 false, ptr %8, align 1
  br label %56

38:                                               ; preds = %30
  %39 = load i8, ptr %15, align 1
  %40 = trunc i8 %39 to i1
  br i1 %40, label %41, label %55

41:                                               ; preds = %38
  %42 = load ptr, ptr %11, align 8
  %43 = getelementptr inbounds i8, ptr %42, i64 0
  %44 = load i8, ptr %43, align 1
  %45 = sext i8 %44 to i32
  %46 = icmp ne i32 %45, 0
  br i1 %46, label %47, label %55

47:                                               ; preds = %41
  %48 = load ptr, ptr %11, align 8
  %49 = load ptr, ptr %11, align 8
  %50 = load i32, ptr %12, align 4
  %51 = load ptr, ptr %18, align 8
  %52 = getelementptr inbounds ptr, ptr %51, i64 4
  %53 = load ptr, ptr %52, align 8
  %54 = call noundef zeroext i1 %53(ptr noundef nonnull align 8 dereferenceable(24) %18, ptr noundef %48, ptr noundef %49, i32 noundef %50)
  br label %55

55:                                               ; preds = %47, %41, %38
  store i1 true, ptr %8, align 1
  br label %56

56:                                               ; preds = %55, %37, %29, %23
  %57 = load i1, ptr %8, align 1
  ret i1 %57
}