; Function Attrs: mustprogress nounwind uwtable
define hidden noundef zeroext i1 @_ZN10ElfDecoder6decodeEPhPciPiPKcb(ptr noundef nonnull align 8 dereferenceable(24) %0, ptr noundef %1, ptr noundef %2, i32 noundef %3, ptr noundef %4, ptr noundef %5, i1 noundef zeroext %6) unnamed_addr #0 align 2 {
  %8 = load ptr, ptr %0, align 8
  %9 = getelementptr inbounds i8, ptr %8, i64 56
  %10 = load ptr, ptr %9, align 8
  %11 = tail call noundef zeroext i1 %10(ptr noundef nonnull align 8 dereferenceable(12) %0) #4
  br i1 %11, label %_ZN10ElfDecoder12get_elf_fileEPKc.exit, label %12

12:                                               ; preds = %7
  %13 = getelementptr inbounds i8, ptr %0, i64 16
  %.023.i = load ptr, ptr %13, align 8
  %.not24.i = icmp eq ptr %.023.i, null
  br i1 %.not24.i, label %._crit_edge.i, label %.lr.ph.i

.lr.ph.i:                                         ; preds = %12, %_ZNK7ElfFile13same_elf_fileEPKc.exit.thread.i
  %.025.i = phi ptr [ %.0.i, %_ZNK7ElfFile13same_elf_fileEPKc.exit.thread.i ], [ %.023.i, %12 ]
  %14 = getelementptr inbounds i8, ptr %.025.i, i64 16
  %15 = load ptr, ptr %14, align 8
  %.not.i.i = icmp eq ptr %15, null
  br i1 %.not.i.i, label %_ZNK7ElfFile13same_elf_fileEPKc.exit.thread.i, label %_ZNK7ElfFile13same_elf_fileEPKc.exit.i

_ZNK7ElfFile13same_elf_fileEPKc.exit.i:           ; preds = %.lr.ph.i
  %16 = tail call i32 @strcmp(ptr noundef nonnull dereferenceable(1) %5, ptr noundef nonnull dereferenceable(1) %15) #5
  %.not2.i.i = icmp eq i32 %16, 0
  br i1 %.not2.i.i, label %.loopexit, label %_ZNK7ElfFile13same_elf_fileEPKc.exit.thread.i

_ZNK7ElfFile13same_elf_fileEPKc.exit.thread.i:    ; preds = %_ZNK7ElfFile13same_elf_fileEPKc.exit.i, %.lr.ph.i
  %17 = getelementptr inbounds i8, ptr %.025.i, i64 8
  %.0.i = load ptr, ptr %17, align 8
  %.not.i = icmp eq ptr %.0.i, null
  br i1 %.not.i, label %._crit_edge.i, label %.lr.ph.i, !llvm.loop !6

._crit_edge.i:                                    ; preds = %_ZNK7ElfFile13same_elf_fileEPKc.exit.thread.i, %12
  %18 = tail call noundef ptr @_Z12AllocateHeapm8MEMFLAGSN17AllocFailStrategy13AllocFailEnumE(i64 noundef 144, i8 noundef zeroext 9, i32 noundef 1) #4
  %19 = icmp eq ptr %18, null
  br i1 %19, label %_ZN10ElfDecoder12get_elf_fileEPKc.exit, label %20

20:                                               ; preds = %._crit_edge.i
  tail call void @_ZN7ElfFileC1EPKc(ptr noundef nonnull align 8 dereferenceable(144) %18, ptr noundef %5) #4
  %21 = load ptr, ptr %13, align 8
  %.not20.i = icmp eq ptr %21, null
  br i1 %.not20.i, label %24, label %22

22:                                               ; preds = %20
  %23 = getelementptr inbounds i8, ptr %18, i64 8
  store ptr %21, ptr %23, align 8
  br label %24

24:                                               ; preds = %22, %20
  store ptr %18, ptr %13, align 8
  br label %.loopexit

.loopexit:                                        ; preds = %_ZNK7ElfFile13same_elf_fileEPKc.exit.i, %24
  %.015.i.ph = phi ptr [ %18, %24 ], [ %.025.i, %_ZNK7ElfFile13same_elf_fileEPKc.exit.i ]
  %25 = tail call noundef zeroext i1 @_ZN7ElfFile6decodeEPhPciPi(ptr noundef nonnull align 8 dereferenceable(144) %.015.i.ph, ptr noundef %1, ptr noundef %2, i32 noundef %3, ptr noundef %4) #4
  %brmerge.not = and i1 %25, %6
  br i1 %brmerge.not, label %26, label %_ZN10ElfDecoder12get_elf_fileEPKc.exit

26:                                               ; preds = %.loopexit
  %27 = load i8, ptr %2, align 1
  %.not = icmp eq i8 %27, 0
  br i1 %.not, label %_ZN10ElfDecoder12get_elf_fileEPKc.exit, label %28

28:                                               ; preds = %26
  %29 = load ptr, ptr %0, align 8
  %30 = getelementptr inbounds i8, ptr %29, i64 32
  %31 = load ptr, ptr %30, align 8
  %32 = tail call noundef zeroext i1 %31(ptr noundef nonnull align 8 dereferenceable(24) %0, ptr noundef nonnull %2, ptr noundef nonnull %2, i32 noundef %3) #4
  br label %_ZN10ElfDecoder12get_elf_fileEPKc.exit

_ZN10ElfDecoder12get_elf_fileEPKc.exit:           ; preds = %._crit_edge.i, %.loopexit, %26, %28, %7
  %.0 = phi i1 [ false, %7 ], [ %25, %.loopexit ], [ true, %28 ], [ true, %26 ], [ false, %._crit_edge.i ]
  ret i1 %.0
}